target datalayout = "e-m:e-p270:32:32-p271:32:32-p272:64:64-i64:64-i128:128-f80:128-n8:16:32:64-S128"
target triple = "x86_64-pc-linux-gnu"

%struct.gmx_ana_selparam_t = type { ptr, %struct.gmx_ana_selvalue_t, ptr, i32 }
%struct.gmx_ana_selvalue_t = type { i32, i32, %union.anon, i32 }
%union.anon = type { ptr }
%struct.t_methoddata_same = type { %union.anon.0, i32, %union.anon.1, ptr, i8 }
%union.anon.0 = type { ptr }
%union.anon.1 = type { ptr }

@.str.4 = private unnamed_addr constant [5 x i8] c"data\00", align 1
@.str.5 = private unnamed_addr constant [127 x i8] c"generated/home/dtcxzyw/WorkSpace/Projects/compilers/llvm-opt-benchmark/bench/gromacs/gromacs/src/gromacs/selection/sm_same.cpp\00", align 1

; Function Attrs: mustprogress uwtable
define internal void @_ZL13gmx_snew_implI17t_methoddata_sameEvPKcS2_iRPT_m(ptr noundef %0, ptr noundef %1, i32 noundef %2, ptr noundef nonnull align 8 dereferenceable(8) %3, i64 noundef %4) #0 {
  %6 = alloca ptr, align 8
  %7 = alloca ptr, align 8
  %8 = alloca i32, align 4
  %9 = alloca ptr, align 8
  %10 = alloca i64, align 8
  store ptr %0, ptr %6, align 8
  store ptr %1, ptr %7, align 8
  store i32 %2, ptr %8, align 4
  store ptr %3, ptr %9, align 8
  store i64 %4, ptr %10, align 8
  %11 = load ptr, ptr %6, align 8
  %12 = load ptr, ptr %7, align 8
  %13 = load i32, ptr %8, align 4
  %14 = load i64, ptr %10, align 8
  %15 = call noundef ptr @_Z11save_callocPKcS0_imm(ptr noundef %11, ptr noundef %12, i32 noundef %13, i64 noundef %14, i64 noundef 40)
  %16 = load ptr, ptr %9, align 8
  store ptr %15, ptr %16, align 8
  ret void
}

; Function Attrs: mustprogress uwtable
define internal noundef ptr @_ZL14init_data_sameiP18gmx_ana_selparam_t(i32 noundef %0, ptr noundef %1) #0 {
  %3 = alloca i32, align 4
  %4 = alloca ptr, align 8
  %5 = alloca ptr, align 8
  store i32 %0, ptr %3, align 4
  store ptr %1, ptr %4, align 8
  call void @_ZL13gmx_snew_implI17t_methoddata_sameEvPKcS2_iRPT_m(ptr noundef @.str.4, ptr noundef @.str.5, i32 noundef 224, ptr noundef nonnull align 8 dereferenceable(8) %5, i64 noundef 1)
  %6 = load ptr, ptr %5, align 8
  %7 = getelementptr inbounds %struct.t_methoddata_same, ptr %6, i32 0, i32 3
  store ptr null, ptr %7, align 8
  %8 = load ptr, ptr %5, align 8
  %9 = getelementptr inbounds %struct.t_methoddata_same, ptr %8, i32 0, i32 1
  %10 = load ptr, ptr %4, align 8
  %11 = getelementptr inbounds %struct.gmx_ana_selparam_t, ptr %10, i64 1
  %12 = getelementptr inbounds %struct.gmx_ana_selparam_t, ptr %11, i32 0, i32 2
  store ptr %9, ptr %12, align 8
  %13 = load ptr, ptr %5, align 8
  ret ptr %13
}