; Function Attrs: mustprogress uwtable
define internal noundef ptr @_ZL14init_data_sameiP18gmx_ana_selparam_t(i32 %0, ptr nocapture noundef writeonly %1) #0 {
  %3 = tail call noundef ptr @_Z11save_callocPKcS0_imm(ptr noundef nonnull @.str.4, ptr noundef nonnull @.str.5, i32 noundef 224, i64 noundef 1, i64 noundef 40)
  %4 = getelementptr inbounds i8, ptr %3, i64 24
  store ptr null, ptr %4, align 8
  %5 = getelementptr inbounds i8, ptr %3, i64 8
  %6 = getelementptr inbounds i8, ptr %1, i64 80
  store ptr %5, ptr %6, align 8
  ret ptr %3
}